target datalayout = "e-m:e-p270:32:32-p271:32:32-p272:64:64-i64:64-i128:128-f80:128-n8:16:32:64-S128"
target triple = "x86_64-pc-linux-gnu"

%"class.zmq::v2_decoder_t" = type { %"class.zmq::decoder_base_t", [8 x i8], i8, %"class.zmq::msg_t", i8, i64 }
%"class.zmq::decoder_base_t" = type { %"class.zmq::i_decoder", { i64, i64 }, ptr, i64, %"class.zmq::shared_message_memory_allocator", ptr }
%"class.zmq::i_decoder" = type { ptr }
%"class.zmq::shared_message_memory_allocator" = type { ptr, i64, i64, ptr, i64 }
%"class.zmq::msg_t" = type { %union.anon }
%union.anon = type { %struct.anon }
%struct.anon = type { ptr, [34 x i8], i8, i8, i32, %"union.zmq::msg_t::group_t" }
%"union.zmq::msg_t::group_t" = type { %struct.anon.1 }
%struct.anon.1 = type { i8, ptr }

; Function Attrs: inlinehint mustprogress nounwind uwtable
define linkonce_odr noundef i64 @_ZN3zmq10get_uint64EPKh(ptr noundef %0) #9 comdat {
  %2 = alloca ptr, align 8
  store ptr %0, ptr %2, align 8, !tbaa !28
  %3 = load ptr, ptr %2, align 8, !tbaa !28
  %4 = getelementptr inbounds i8, ptr %3, i64 0
  %5 = load i8, ptr %4, align 1, !tbaa !31
  %6 = zext i8 %5 to i64
  %7 = shl i64 %6, 56
  %8 = load ptr, ptr %2, align 8, !tbaa !28
  %9 = getelementptr inbounds i8, ptr %8, i64 1
  %10 = load i8, ptr %9, align 1, !tbaa !31
  %11 = zext i8 %10 to i64
  %12 = shl i64 %11, 48
  %13 = or i64 %7, %12
  %14 = load ptr, ptr %2, align 8, !tbaa !28
  %15 = getelementptr inbounds i8, ptr %14, i64 2
  %16 = load i8, ptr %15, align 1, !tbaa !31
  %17 = zext i8 %16 to i64
  %18 = shl i64 %17, 40
  %19 = or i64 %13, %18
  %20 = load ptr, ptr %2, align 8, !tbaa !28
  %21 = getelementptr inbounds i8, ptr %20, i64 3
  %22 = load i8, ptr %21, align 1, !tbaa !31
  %23 = zext i8 %22 to i64
  %24 = shl i64 %23, 32
  %25 = or i64 %19, %24
  %26 = load ptr, ptr %2, align 8, !tbaa !28
  %27 = getelementptr inbounds i8, ptr %26, i64 4
  %28 = load i8, ptr %27, align 1, !tbaa !31
  %29 = zext i8 %28 to i64
  %30 = shl i64 %29, 24
  %31 = or i64 %25, %30
  %32 = load ptr, ptr %2, align 8, !tbaa !28
  %33 = getelementptr inbounds i8, ptr %32, i64 5
  %34 = load i8, ptr %33, align 1, !tbaa !31
  %35 = zext i8 %34 to i64
  %36 = shl i64 %35, 16
  %37 = or i64 %31, %36
  %38 = load ptr, ptr %2, align 8, !tbaa !28
  %39 = getelementptr inbounds i8, ptr %38, i64 6
  %40 = load i8, ptr %39, align 1, !tbaa !31
  %41 = zext i8 %40 to i64
  %42 = shl i64 %41, 8
  %43 = or i64 %37, %42
  %44 = load ptr, ptr %2, align 8, !tbaa !28
  %45 = getelementptr inbounds i8, ptr %44, i64 7
  %46 = load i8, ptr %45, align 1, !tbaa !31
  %47 = zext i8 %46 to i64
  %48 = or i64 %43, %47
  ret i64 %48
}

; Function Attrs: mustprogress uwtable
define noundef i32 @_ZN3zmq12v2_decoder_t21eight_byte_size_readyEPKh(ptr noundef nonnull align 8 dereferenceable(184) %0, ptr noundef %1) #0 align 2 {
  %3 = alloca ptr, align 8
  %4 = alloca ptr, align 8
  %5 = alloca i64, align 8
  store ptr %0, ptr %3, align 8, !tbaa !3
  store ptr %1, ptr %4, align 8, !tbaa !28
  %6 = load ptr, ptr %3, align 8
  call void @llvm.lifetime.start.p0(i64 8, ptr %5) #12
  %7 = getelementptr inbounds nuw %"class.zmq::v2_decoder_t", ptr %6, i32 0, i32 1
  %8 = getelementptr inbounds [8 x i8], ptr %7, i64 0, i64 0
  %9 = call noundef i64 @_ZN3zmq10get_uint64EPKh(ptr noundef %8)
  store i64 %9, ptr %5, align 8, !tbaa !8
  %10 = load i64, ptr %5, align 8, !tbaa !8
  %11 = load ptr, ptr %4, align 8, !tbaa !28
  %12 = call noundef i32 @_ZN3zmq12v2_decoder_t10size_readyEmPKh(ptr noundef nonnull align 8 dereferenceable(184) %6, i64 noundef %10, ptr noundef %11)
  call void @llvm.lifetime.end.p0(i64 8, ptr %5) #12
  ret i32 %12
}