; Function Attrs: mustprogress uwtable
define noundef range(i32 -1, 1) i32 @_ZN3zmq12v2_decoder_t21eight_byte_size_readyEPKh(ptr noundef nonnull align 8 dereferenceable(184) %0, ptr noundef %1) #0 align 2 {
  %3 = getelementptr inbounds nuw i8, ptr %0, i64 88
  %4 = load i8, ptr %3, align 8, !tbaa !29
  %5 = zext i8 %4 to i64
  %6 = shl nuw i64 %5, 56
  %7 = getelementptr inbounds nuw i8, ptr %0, i64 89
  %8 = load i8, ptr %7, align 1, !tbaa !29
  %9 = zext i8 %8 to i64
  %10 = shl nuw nsw i64 %9, 48
  %11 = or disjoint i64 %10, %6
  %12 = getelementptr inbounds nuw i8, ptr %0, i64 90
  %13 = load i8, ptr %12, align 2, !tbaa !29
  %14 = zext i8 %13 to i64
  %15 = shl nuw nsw i64 %14, 40
  %16 = or disjoint i64 %11, %15
  %17 = getelementptr inbounds nuw i8, ptr %0, i64 91
  %18 = load i8, ptr %17, align 1, !tbaa !29
  %19 = zext i8 %18 to i64
  %20 = shl nuw nsw i64 %19, 32
  %21 = or disjoint i64 %16, %20
  %22 = getelementptr inbounds nuw i8, ptr %0, i64 92
  %23 = load i8, ptr %22, align 4, !tbaa !29
  %24 = zext i8 %23 to i64
  %25 = shl nuw nsw i64 %24, 24
  %26 = or disjoint i64 %21, %25
  %27 = getelementptr inbounds nuw i8, ptr %0, i64 93
  %28 = load i8, ptr %27, align 1, !tbaa !29
  %29 = zext i8 %28 to i64
  %30 = shl nuw nsw i64 %29, 16
  %31 = or disjoint i64 %26, %30
  %32 = getelementptr inbounds nuw i8, ptr %0, i64 94
  %33 = load i8, ptr %32, align 2, !tbaa !29
  %34 = zext i8 %33 to i64
  %35 = shl nuw nsw i64 %34, 8
  %36 = or i64 %31, %35
  %37 = getelementptr inbounds nuw i8, ptr %0, i64 95
  %38 = load i8, ptr %37, align 1, !tbaa !29
  %39 = zext i8 %38 to i64
  %40 = or i64 %36, %39
  %41 = tail call noundef i32 @_ZN3zmq12v2_decoder_t10size_readyEmPKh(ptr noundef nonnull align 8 dereferenceable(184) %0, i64 noundef %40, ptr noundef %1)
  ret i32 %41
}